
adc.elf:     file format elf32-avr

Sections:
Idx Name          Size      VMA       LMA       File off  Algn
  0 .data         00000024  00800100  00000860  000008f4  2**0
                  CONTENTS, ALLOC, LOAD, DATA
  1 .text         00000860  00000000  00000000  00000094  2**1
                  CONTENTS, ALLOC, LOAD, READONLY, CODE
  2 .bss          00000003  00800124  00800124  00000918  2**0
                  ALLOC
  3 .debug_aranges 00000020  00000000  00000000  00000918  2**0
                  CONTENTS, READONLY, DEBUGGING
  4 .debug_pubnames 000001c0  00000000  00000000  00000938  2**0
                  CONTENTS, READONLY, DEBUGGING
  5 .debug_info   0000062f  00000000  00000000  00000af8  2**0
                  CONTENTS, READONLY, DEBUGGING
  6 .debug_abbrev 00000218  00000000  00000000  00001127  2**0
                  CONTENTS, READONLY, DEBUGGING
  7 .debug_line   000006a7  00000000  00000000  0000133f  2**0
                  CONTENTS, READONLY, DEBUGGING
  8 .debug_frame  000001b0  00000000  00000000  000019e8  2**2
                  CONTENTS, READONLY, DEBUGGING
  9 .debug_str    0000020a  00000000  00000000  00001b98  2**0
                  CONTENTS, READONLY, DEBUGGING
 10 .debug_loc    00000337  00000000  00000000  00001da2  2**0
                  CONTENTS, READONLY, DEBUGGING
 11 .debug_ranges 00000048  00000000  00000000  000020d9  2**0
                  CONTENTS, READONLY, DEBUGGING

Disassembly of section .text:

00000000 <__vectors>:
   0:	0c 94 46 00 	jmp	0x8c	; 0x8c <__ctors_end>
   4:	0c 94 65 00 	jmp	0xca	; 0xca <__bad_interrupt>
   8:	0c 94 65 00 	jmp	0xca	; 0xca <__bad_interrupt>
   c:	0c 94 65 00 	jmp	0xca	; 0xca <__bad_interrupt>
  10:	0c 94 65 00 	jmp	0xca	; 0xca <__bad_interrupt>
  14:	0c 94 65 00 	jmp	0xca	; 0xca <__bad_interrupt>
  18:	0c 94 65 00 	jmp	0xca	; 0xca <__bad_interrupt>
  1c:	0c 94 65 00 	jmp	0xca	; 0xca <__bad_interrupt>
  20:	0c 94 65 00 	jmp	0xca	; 0xca <__bad_interrupt>
  24:	0c 94 65 00 	jmp	0xca	; 0xca <__bad_interrupt>
  28:	0c 94 65 00 	jmp	0xca	; 0xca <__bad_interrupt>
  2c:	0c 94 65 00 	jmp	0xca	; 0xca <__bad_interrupt>
  30:	0c 94 65 00 	jmp	0xca	; 0xca <__bad_interrupt>
  34:	0c 94 65 00 	jmp	0xca	; 0xca <__bad_interrupt>
  38:	0c 94 65 00 	jmp	0xca	; 0xca <__bad_interrupt>
  3c:	0c 94 65 00 	jmp	0xca	; 0xca <__bad_interrupt>
  40:	0c 94 65 00 	jmp	0xca	; 0xca <__bad_interrupt>
  44:	0c 94 65 00 	jmp	0xca	; 0xca <__bad_interrupt>
  48:	0c 94 65 00 	jmp	0xca	; 0xca <__bad_interrupt>
  4c:	0c 94 65 00 	jmp	0xca	; 0xca <__bad_interrupt>
  50:	0c 94 65 00 	jmp	0xca	; 0xca <__bad_interrupt>
  54:	0c 94 65 00 	jmp	0xca	; 0xca <__bad_interrupt>
  58:	0c 94 65 00 	jmp	0xca	; 0xca <__bad_interrupt>
  5c:	0c 94 65 00 	jmp	0xca	; 0xca <__bad_interrupt>
  60:	0c 94 65 00 	jmp	0xca	; 0xca <__bad_interrupt>
  64:	0c 94 65 00 	jmp	0xca	; 0xca <__bad_interrupt>
  68:	0c 94 65 00 	jmp	0xca	; 0xca <__bad_interrupt>
  6c:	0c 94 65 00 	jmp	0xca	; 0xca <__bad_interrupt>
  70:	0c 94 65 00 	jmp	0xca	; 0xca <__bad_interrupt>
  74:	0c 94 65 00 	jmp	0xca	; 0xca <__bad_interrupt>
  78:	0c 94 65 00 	jmp	0xca	; 0xca <__bad_interrupt>
  7c:	0c 94 65 00 	jmp	0xca	; 0xca <__bad_interrupt>
  80:	0c 94 65 00 	jmp	0xca	; 0xca <__bad_interrupt>
  84:	0c 94 65 00 	jmp	0xca	; 0xca <__bad_interrupt>
  88:	0c 94 65 00 	jmp	0xca	; 0xca <__bad_interrupt>

0000008c <__ctors_end>:
  8c:	11 24       	eor	r1, r1
  8e:	1f be       	out	0x3f, r1	; 63
  90:	cf ef       	ldi	r28, 0xFF	; 255
  92:	d0 e1       	ldi	r29, 0x10	; 16
  94:	de bf       	out	0x3e, r29	; 62
  96:	cd bf       	out	0x3d, r28	; 61

00000098 <__do_copy_data>:
  98:	11 e0       	ldi	r17, 0x01	; 1
  9a:	a0 e0       	ldi	r26, 0x00	; 0
  9c:	b1 e0       	ldi	r27, 0x01	; 1
  9e:	e0 e6       	ldi	r30, 0x60	; 96
  a0:	f8 e0       	ldi	r31, 0x08	; 8
  a2:	00 e0       	ldi	r16, 0x00	; 0
  a4:	0b bf       	out	0x3b, r16	; 59
  a6:	02 c0       	rjmp	.+4      	; 0xac <__do_copy_data+0x14>
  a8:	07 90       	elpm	r0, Z+
  aa:	0d 92       	st	X+, r0
  ac:	a4 32       	cpi	r26, 0x24	; 36
  ae:	b1 07       	cpc	r27, r17
  b0:	d9 f7       	brne	.-10     	; 0xa8 <__do_copy_data+0x10>

000000b2 <__do_clear_bss>:
  b2:	11 e0       	ldi	r17, 0x01	; 1
  b4:	a4 e2       	ldi	r26, 0x24	; 36
  b6:	b1 e0       	ldi	r27, 0x01	; 1
  b8:	01 c0       	rjmp	.+2      	; 0xbc <.do_clear_bss_start>

000000ba <.do_clear_bss_loop>:
  ba:	1d 92       	st	X+, r1

000000bc <.do_clear_bss_start>:
  bc:	a7 32       	cpi	r26, 0x27	; 39
  be:	b1 07       	cpc	r27, r17
  c0:	e1 f7       	brne	.-8      	; 0xba <.do_clear_bss_loop>
  c2:	0e 94 9d 02 	call	0x53a	; 0x53a <main>
  c6:	0c 94 2e 04 	jmp	0x85c	; 0x85c <_exit>

000000ca <__bad_interrupt>:
  ca:	0c 94 00 00 	jmp	0	; 0x0 <__vectors>

000000ce <lcdDelay>:
	LCD_ENABLE_OFF;
	lcdDelay(5);
}

void lcdDelay(char d)
{
  ce:	df 93       	push	r29
  d0:	cf 93       	push	r28
  d2:	00 d0       	rcall	.+0      	; 0xd4 <lcdDelay+0x6>
  d4:	cd b7       	in	r28, 0x3d	; 61
  d6:	de b7       	in	r29, 0x3e	; 62
  d8:	28 2f       	mov	r18, r24
  da:	0d c0       	rjmp	.+26     	; 0xf6 <lcdDelay+0x28>
	volatile di;
	while(d--)
    	for(di=0; di<2; di++);
  dc:	1a 82       	std	Y+2, r1	; 0x02
  de:	19 82       	std	Y+1, r1	; 0x01
  e0:	05 c0       	rjmp	.+10     	; 0xec <lcdDelay+0x1e>
  e2:	89 81       	ldd	r24, Y+1	; 0x01
  e4:	9a 81       	ldd	r25, Y+2	; 0x02
  e6:	01 96       	adiw	r24, 0x01	; 1
  e8:	9a 83       	std	Y+2, r25	; 0x02
  ea:	89 83       	std	Y+1, r24	; 0x01
  ec:	89 81       	ldd	r24, Y+1	; 0x01
  ee:	9a 81       	ldd	r25, Y+2	; 0x02
  f0:	02 97       	sbiw	r24, 0x02	; 2
  f2:	bc f3       	brlt	.-18     	; 0xe2 <lcdDelay+0x14>
  f4:	21 50       	subi	r18, 0x01	; 1
}

void lcdDelay(char d)
{
	volatile di;
	while(d--)
  f6:	22 23       	and	r18, r18
  f8:	89 f7       	brne	.-30     	; 0xdc <lcdDelay+0xe>
    	for(di=0; di<2; di++);
}
  fa:	0f 90       	pop	r0
  fc:	0f 90       	pop	r0
  fe:	cf 91       	pop	r28
 100:	df 91       	pop	r29
 102:	08 95       	ret

00000104 <lcdRegWrite>:
	lcd_putn3(number/1000);
	lcd_putn3(number);
}

void lcdRegWrite(unsigned char reg)
{
 104:	ff 92       	push	r15
 106:	0f 93       	push	r16
 108:	1f 93       	push	r17
 10a:	f8 2e       	mov	r15, r24
	LCD_R_W_OFF;
 10c:	80 91 26 01 	lds	r24, 0x0126
 110:	98 2f       	mov	r25, r24
 112:	9d 70       	andi	r25, 0x0D	; 13
 114:	01 e0       	ldi	r16, 0x01	; 1
 116:	10 e8       	ldi	r17, 0x80	; 128
 118:	f8 01       	movw	r30, r16
 11a:	90 83       	st	Z, r25
	LCD_RS_OFF;
 11c:	8c 70       	andi	r24, 0x0C	; 12
 11e:	80 93 26 01 	sts	0x0126, r24
 122:	80 83       	st	Z, r24
	lcdDelay(5);
 124:	85 e0       	ldi	r24, 0x05	; 5
 126:	0e 94 67 00 	call	0xce	; 0xce <lcdDelay>
	LCD_ENABLE_ON;
 12a:	80 91 26 01 	lds	r24, 0x0126
 12e:	84 60       	ori	r24, 0x04	; 4
 130:	80 93 26 01 	sts	0x0126, r24
 134:	f8 01       	movw	r30, r16
 136:	80 83       	st	Z, r24
	LCD_DATA = reg;
 138:	f0 92 00 80 	sts	0x8000, r15
	lcdDelay(10);
 13c:	8a e0       	ldi	r24, 0x0A	; 10
 13e:	0e 94 67 00 	call	0xce	; 0xce <lcdDelay>
	LCD_ENABLE_OFF;
 142:	80 91 26 01 	lds	r24, 0x0126
 146:	8b 70       	andi	r24, 0x0B	; 11
 148:	80 93 26 01 	sts	0x0126, r24
 14c:	f8 01       	movw	r30, r16
 14e:	80 83       	st	Z, r24
	lcdDelay(5);
 150:	85 e0       	ldi	r24, 0x05	; 5
 152:	0e 94 67 00 	call	0xce	; 0xce <lcdDelay>
}
 156:	1f 91       	pop	r17
 158:	0f 91       	pop	r16
 15a:	ff 90       	pop	r15
 15c:	08 95       	ret

0000015e <lcd_putch>:
		lcd_putch(temp + 0x57);
	}
}

void lcd_putch(unsigned char reg)
{
 15e:	ff 92       	push	r15
 160:	0f 93       	push	r16
 162:	1f 93       	push	r17
 164:	f8 2e       	mov	r15, r24
	LCD_R_W_OFF;
 166:	80 91 26 01 	lds	r24, 0x0126
 16a:	8d 70       	andi	r24, 0x0D	; 13
 16c:	01 e0       	ldi	r16, 0x01	; 1
 16e:	10 e8       	ldi	r17, 0x80	; 128
 170:	f8 01       	movw	r30, r16
 172:	80 83       	st	Z, r24
	LCD_RS_ON;
 174:	81 60       	ori	r24, 0x01	; 1
 176:	80 93 26 01 	sts	0x0126, r24
 17a:	80 83       	st	Z, r24
	lcdDelay(5);
 17c:	85 e0       	ldi	r24, 0x05	; 5
 17e:	0e 94 67 00 	call	0xce	; 0xce <lcdDelay>
	LCD_ENABLE_ON;
 182:	80 91 26 01 	lds	r24, 0x0126
 186:	84 60       	ori	r24, 0x04	; 4
 188:	80 93 26 01 	sts	0x0126, r24
 18c:	f8 01       	movw	r30, r16
 18e:	80 83       	st	Z, r24
	LCD_DATA = reg;
 190:	f0 92 00 80 	sts	0x8000, r15
	lcdDelay(10);
 194:	8a e0       	ldi	r24, 0x0A	; 10
 196:	0e 94 67 00 	call	0xce	; 0xce <lcdDelay>
	LCD_ENABLE_OFF;
 19a:	80 91 26 01 	lds	r24, 0x0126
 19e:	8b 70       	andi	r24, 0x0B	; 11
 1a0:	80 93 26 01 	sts	0x0126, r24
 1a4:	f8 01       	movw	r30, r16
 1a6:	80 83       	st	Z, r24
	lcdDelay(5);
 1a8:	85 e0       	ldi	r24, 0x05	; 5
 1aa:	0e 94 67 00 	call	0xce	; 0xce <lcdDelay>
}
 1ae:	1f 91       	pop	r17
 1b0:	0f 91       	pop	r16
 1b2:	ff 90       	pop	r15
 1b4:	08 95       	ret

000001b6 <lcd_putn3>:
//	lcd_putch(hex_char[number&0x0f]);
	lcd_putch((number&0x0f)+'0');
}
//-사용자- 3자리 숫자 출력 예)012
void lcd_putn3(unsigned int number)
{
 1b6:	0f 93       	push	r16
 1b8:	1f 93       	push	r17
	number%=1000;
 1ba:	68 ee       	ldi	r22, 0xE8	; 232
 1bc:	73 e0       	ldi	r23, 0x03	; 3
 1be:	0e 94 1a 04 	call	0x834	; 0x834 <__udivmodhi4>
 1c2:	18 2f       	mov	r17, r24
 1c4:	09 2f       	mov	r16, r25
	lcd_putch(number/100+'0');
 1c6:	64 e6       	ldi	r22, 0x64	; 100
 1c8:	70 e0       	ldi	r23, 0x00	; 0
 1ca:	0e 94 1a 04 	call	0x834	; 0x834 <__udivmodhi4>
 1ce:	86 2f       	mov	r24, r22
 1d0:	80 5d       	subi	r24, 0xD0	; 208
 1d2:	0e 94 af 00 	call	0x15e	; 0x15e <lcd_putch>
	number%=100;
 1d6:	81 2f       	mov	r24, r17
 1d8:	90 2f       	mov	r25, r16
 1da:	64 e6       	ldi	r22, 0x64	; 100
 1dc:	70 e0       	ldi	r23, 0x00	; 0
 1de:	0e 94 1a 04 	call	0x834	; 0x834 <__udivmodhi4>
 1e2:	18 2f       	mov	r17, r24
 1e4:	09 2f       	mov	r16, r25
	lcd_putch(number/10+'0');
 1e6:	6a e0       	ldi	r22, 0x0A	; 10
 1e8:	70 e0       	ldi	r23, 0x00	; 0
 1ea:	0e 94 1a 04 	call	0x834	; 0x834 <__udivmodhi4>
 1ee:	86 2f       	mov	r24, r22
 1f0:	80 5d       	subi	r24, 0xD0	; 208
 1f2:	0e 94 af 00 	call	0x15e	; 0x15e <lcd_putch>
	number%=10;
	lcd_putch(number+'0');
 1f6:	81 2f       	mov	r24, r17
 1f8:	90 2f       	mov	r25, r16
 1fa:	6a e0       	ldi	r22, 0x0A	; 10
 1fc:	70 e0       	ldi	r23, 0x00	; 0
 1fe:	0e 94 1a 04 	call	0x834	; 0x834 <__udivmodhi4>
 202:	80 5d       	subi	r24, 0xD0	; 208
 204:	0e 94 af 00 	call	0x15e	; 0x15e <lcd_putch>
}
 208:	1f 91       	pop	r17
 20a:	0f 91       	pop	r16
 20c:	08 95       	ret

0000020e <lcd_putn6>:
	lcd_putn2(number/1000);
	lcd_putn3(number);
}
//-사용자- 6자리 숫자 출력 예)001234
void lcd_putn6(unsigned int number)
{
 20e:	0f 93       	push	r16
 210:	1f 93       	push	r17
 212:	8c 01       	movw	r16, r24
	lcd_putn3(number/1000);
 214:	68 ee       	ldi	r22, 0xE8	; 232
 216:	73 e0       	ldi	r23, 0x03	; 3
 218:	0e 94 1a 04 	call	0x834	; 0x834 <__udivmodhi4>
 21c:	cb 01       	movw	r24, r22
 21e:	0e 94 db 00 	call	0x1b6	; 0x1b6 <lcd_putn3>
	lcd_putn3(number);
 222:	c8 01       	movw	r24, r16
 224:	0e 94 db 00 	call	0x1b6	; 0x1b6 <lcd_putn3>
}
 228:	1f 91       	pop	r17
 22a:	0f 91       	pop	r16
 22c:	08 95       	ret

0000022e <lcd_puth2>:
	number%=10;
	lcd_putch(number+'0');
}
unsigned char hex_char[16] = {'0','1','2','3','4','5','6','7','8','9','A','B','C','D','E','F'}; 
void lcd_puth2(unsigned int number)
{
 22e:	0f 93       	push	r16
 230:	1f 93       	push	r17
	number%=100;
 232:	64 e6       	ldi	r22, 0x64	; 100
 234:	70 e0       	ldi	r23, 0x00	; 0
 236:	0e 94 1a 04 	call	0x834	; 0x834 <__udivmodhi4>
 23a:	8c 01       	movw	r16, r24
	lcd_putch((number/16)+'0');
 23c:	24 e0       	ldi	r18, 0x04	; 4
 23e:	96 95       	lsr	r25
 240:	87 95       	ror	r24
 242:	2a 95       	dec	r18
 244:	e1 f7       	brne	.-8      	; 0x23e <lcd_puth2+0x10>
 246:	80 5d       	subi	r24, 0xD0	; 208
 248:	0e 94 af 00 	call	0x15e	; 0x15e <lcd_putch>
//	number%=10;
//	lcd_putch(hex_char[number&0x0f]);
	lcd_putch((number&0x0f)+'0');
 24c:	0f 70       	andi	r16, 0x0F	; 15
 24e:	80 2f       	mov	r24, r16
 250:	80 5d       	subi	r24, 0xD0	; 208
 252:	0e 94 af 00 	call	0x15e	; 0x15e <lcd_putch>
}
 256:	1f 91       	pop	r17
 258:	0f 91       	pop	r16
 25a:	08 95       	ret

0000025c <lcd_putn2>:
{
	number%=10;
	lcd_putch(number+'0');
}
void lcd_putn2(unsigned int number)
{
 25c:	0f 93       	push	r16
 25e:	1f 93       	push	r17
	number%=100;
 260:	64 e6       	ldi	r22, 0x64	; 100
 262:	70 e0       	ldi	r23, 0x00	; 0
 264:	0e 94 1a 04 	call	0x834	; 0x834 <__udivmodhi4>
 268:	18 2f       	mov	r17, r24
 26a:	09 2f       	mov	r16, r25
	lcd_putch(number/10+'0');
 26c:	6a e0       	ldi	r22, 0x0A	; 10
 26e:	70 e0       	ldi	r23, 0x00	; 0
 270:	0e 94 1a 04 	call	0x834	; 0x834 <__udivmodhi4>
 274:	86 2f       	mov	r24, r22
 276:	80 5d       	subi	r24, 0xD0	; 208
 278:	0e 94 af 00 	call	0x15e	; 0x15e <lcd_putch>
	number%=10;
	lcd_putch(number+'0');
 27c:	81 2f       	mov	r24, r17
 27e:	90 2f       	mov	r25, r16
 280:	6a e0       	ldi	r22, 0x0A	; 10
 282:	70 e0       	ldi	r23, 0x00	; 0
 284:	0e 94 1a 04 	call	0x834	; 0x834 <__udivmodhi4>
 288:	80 5d       	subi	r24, 0xD0	; 208
 28a:	0e 94 af 00 	call	0x15e	; 0x15e <lcd_putch>
}
 28e:	1f 91       	pop	r17
 290:	0f 91       	pop	r16
 292:	08 95       	ret

00000294 <lcd_putn5>:
{
	lcd_putn1(number/1000);
	lcd_putn3(number);
}
void lcd_putn5(unsigned int number)
{
 294:	0f 93       	push	r16
 296:	1f 93       	push	r17
 298:	8c 01       	movw	r16, r24
	lcd_putn2(number/1000);
 29a:	68 ee       	ldi	r22, 0xE8	; 232
 29c:	73 e0       	ldi	r23, 0x03	; 3
 29e:	0e 94 1a 04 	call	0x834	; 0x834 <__udivmodhi4>
 2a2:	cb 01       	movw	r24, r22
 2a4:	0e 94 2e 01 	call	0x25c	; 0x25c <lcd_putn2>
	lcd_putn3(number);
 2a8:	c8 01       	movw	r24, r16
 2aa:	0e 94 db 00 	call	0x1b6	; 0x1b6 <lcd_putn3>
}
 2ae:	1f 91       	pop	r17
 2b0:	0f 91       	pop	r16
 2b2:	08 95       	ret

000002b4 <lcd_putn1>:
}

void lcd_putn1(unsigned int number)
{
	number%=10;
	lcd_putch(number+'0');
 2b4:	6a e0       	ldi	r22, 0x0A	; 10
 2b6:	70 e0       	ldi	r23, 0x00	; 0
 2b8:	0e 94 1a 04 	call	0x834	; 0x834 <__udivmodhi4>
 2bc:	80 5d       	subi	r24, 0xD0	; 208
 2be:	0e 94 af 00 	call	0x15e	; 0x15e <lcd_putch>
}
 2c2:	08 95       	ret

000002c4 <lcd_putn4>:
	lcd_putch(number/10+'0');
	number%=10;
	lcd_putch(number+'0');
}
void lcd_putn4(unsigned int number)
{
 2c4:	0f 93       	push	r16
 2c6:	1f 93       	push	r17
 2c8:	8c 01       	movw	r16, r24
	lcd_putn1(number/1000);
 2ca:	68 ee       	ldi	r22, 0xE8	; 232
 2cc:	73 e0       	ldi	r23, 0x03	; 3
 2ce:	0e 94 1a 04 	call	0x834	; 0x834 <__udivmodhi4>
 2d2:	cb 01       	movw	r24, r22
 2d4:	0e 94 5a 01 	call	0x2b4	; 0x2b4 <lcd_putn1>
	lcd_putn3(number);
 2d8:	c8 01       	movw	r24, r16
 2da:	0e 94 db 00 	call	0x1b6	; 0x1b6 <lcd_putn3>
}
 2de:	1f 91       	pop	r17
 2e0:	0f 91       	pop	r16
 2e2:	08 95       	ret

000002e4 <putcharHex>:
		lcd_putch( reg + 0x30 );
	}
}

void putcharHex(unsigned char reg)
{
 2e4:	1f 93       	push	r17
 2e6:	18 2f       	mov	r17, r24
	unsigned char temp;
	
	temp = reg;
	temp>>=4;
 2e8:	82 95       	swap	r24
 2ea:	8f 70       	andi	r24, 0x0F	; 15
	if(temp<10){
 2ec:	8a 30       	cpi	r24, 0x0A	; 10
 2ee:	10 f4       	brcc	.+4      	; 0x2f4 <putcharHex+0x10>
		lcd_putch(temp + 0x30);
 2f0:	80 5d       	subi	r24, 0xD0	; 208
 2f2:	01 c0       	rjmp	.+2      	; 0x2f6 <putcharHex+0x12>
	}else{
		lcd_putch(temp + 0x57);
 2f4:	89 5a       	subi	r24, 0xA9	; 169
 2f6:	0e 94 af 00 	call	0x15e	; 0x15e <lcd_putch>
	}

	temp = reg & 0x0f;
 2fa:	81 2f       	mov	r24, r17
 2fc:	8f 70       	andi	r24, 0x0F	; 15
	if(temp<10){
 2fe:	8a 30       	cpi	r24, 0x0A	; 10
 300:	10 f4       	brcc	.+4      	; 0x306 <putcharHex+0x22>
		lcd_putch(temp + 0x30);
 302:	80 5d       	subi	r24, 0xD0	; 208
 304:	01 c0       	rjmp	.+2      	; 0x308 <putcharHex+0x24>
	}else{
		lcd_putch(temp + 0x57);
 306:	89 5a       	subi	r24, 0xA9	; 169
 308:	0e 94 af 00 	call	0x15e	; 0x15e <lcd_putch>
	}
}
 30c:	1f 91       	pop	r17
 30e:	08 95       	ret

00000310 <putcharInt>:
	lcdRegWrite(0x01);
	lcdDelay(500);
}

void putcharInt(unsigned char reg)
{
 310:	ff 92       	push	r15
 312:	0f 93       	push	r16
 314:	1f 93       	push	r17
 316:	08 2f       	mov	r16, r24
	unsigned char temp;
	
	if(reg>99){
 318:	84 36       	cpi	r24, 0x64	; 100
 31a:	f0 f0       	brcs	.+60     	; 0x358 <putcharInt+0x48>
		temp = reg / 100;
 31c:	64 e6       	ldi	r22, 0x64	; 100
 31e:	0e 94 0e 04 	call	0x81c	; 0x81c <__udivmodqi4>
 322:	18 2f       	mov	r17, r24
		lcd_putch( temp + 0x30 );
 324:	80 5d       	subi	r24, 0xD0	; 208
 326:	0e 94 af 00 	call	0x15e	; 0x15e <lcd_putch>
		reg = reg - temp*100;
 32a:	8c e9       	ldi	r24, 0x9C	; 156
 32c:	9f ef       	ldi	r25, 0xFF	; 255
 32e:	18 9f       	mul	r17, r24
 330:	10 2d       	mov	r17, r0
 332:	11 24       	eor	r1, r1
 334:	10 0f       	add	r17, r16
		temp = reg / 10;
 336:	81 2f       	mov	r24, r17
 338:	6a e0       	ldi	r22, 0x0A	; 10
 33a:	0e 94 0e 04 	call	0x81c	; 0x81c <__udivmodqi4>
 33e:	08 2f       	mov	r16, r24
		lcd_putch( temp + 0x30 );
 340:	80 5d       	subi	r24, 0xD0	; 208
 342:	0e 94 af 00 	call	0x15e	; 0x15e <lcd_putch>
		reg = reg - temp*10;
		lcd_putch( reg + 0x30 );
 346:	10 5d       	subi	r17, 0xD0	; 208
 348:	86 ef       	ldi	r24, 0xF6	; 246
 34a:	9f ef       	ldi	r25, 0xFF	; 255
 34c:	08 9f       	mul	r16, r24
 34e:	00 2d       	mov	r16, r0
 350:	11 24       	eor	r1, r1
 352:	80 2f       	mov	r24, r16
 354:	81 0f       	add	r24, r17
 356:	1f c0       	rjmp	.+62     	; 0x396 <putcharInt+0x86>
 358:	30 e3       	ldi	r19, 0x30	; 48
 35a:	f3 2e       	mov	r15, r19
 35c:	f8 0e       	add	r15, r24
	}else if(reg>9){
 35e:	8a 30       	cpi	r24, 0x0A	; 10
 360:	98 f0       	brcs	.+38     	; 0x388 <putcharInt+0x78>
		lcd_putch(' ');
 362:	80 e2       	ldi	r24, 0x20	; 32
 364:	0e 94 af 00 	call	0x15e	; 0x15e <lcd_putch>
		temp = reg / 10;
 368:	80 2f       	mov	r24, r16
 36a:	6a e0       	ldi	r22, 0x0A	; 10
 36c:	0e 94 0e 04 	call	0x81c	; 0x81c <__udivmodqi4>
 370:	18 2f       	mov	r17, r24
		lcd_putch( temp + 0x30 );
 372:	80 5d       	subi	r24, 0xD0	; 208
 374:	0e 94 af 00 	call	0x15e	; 0x15e <lcd_putch>
		reg = reg - temp*10;
		lcd_putch( reg + 0x30 );
 378:	86 ef       	ldi	r24, 0xF6	; 246
 37a:	9f ef       	ldi	r25, 0xFF	; 255
 37c:	18 9f       	mul	r17, r24
 37e:	10 2d       	mov	r17, r0
 380:	11 24       	eor	r1, r1
 382:	81 2f       	mov	r24, r17
 384:	8f 0d       	add	r24, r15
 386:	07 c0       	rjmp	.+14     	; 0x396 <putcharInt+0x86>
	}else{
		lcd_putch(' ');
 388:	80 e2       	ldi	r24, 0x20	; 32
 38a:	0e 94 af 00 	call	0x15e	; 0x15e <lcd_putch>
		lcd_putch(' ');
 38e:	80 e2       	ldi	r24, 0x20	; 32
 390:	0e 94 af 00 	call	0x15e	; 0x15e <lcd_putch>
		lcd_putch( reg + 0x30 );
 394:	8f 2d       	mov	r24, r15
 396:	0e 94 af 00 	call	0x15e	; 0x15e <lcd_putch>
	}
}
 39a:	1f 91       	pop	r17
 39c:	0f 91       	pop	r16
 39e:	ff 90       	pop	r15
 3a0:	08 95       	ret

000003a2 <lcd_putss>:
		s++;
	}
}

void lcd_putss(char *s)
{
 3a2:	cf 93       	push	r28
 3a4:	df 93       	push	r29
 3a6:	ec 01       	movw	r28, r24
 3a8:	03 c0       	rjmp	.+6      	; 0x3b0 <lcd_putss+0xe>
	while(*s)
	{
        lcd_putch(*s);
 3aa:	0e 94 af 00 	call	0x15e	; 0x15e <lcd_putch>
		s++;
 3ae:	21 96       	adiw	r28, 0x01	; 1
	}
}

void lcd_putss(char *s)
{
	while(*s)
 3b0:	88 81       	ld	r24, Y
 3b2:	88 23       	and	r24, r24
 3b4:	d1 f7       	brne	.-12     	; 0x3aa <lcd_putss+0x8>
	{
        lcd_putch(*s);
		s++;
	}
}
 3b6:	df 91       	pop	r29
 3b8:	cf 91       	pop	r28
 3ba:	08 95       	ret

000003bc <lcdClear>:
    lcdClear();
}

void lcdClear(void)
{
	lcdRegWrite(0x01);
 3bc:	81 e0       	ldi	r24, 0x01	; 1
 3be:	0e 94 82 00 	call	0x104	; 0x104 <lcdRegWrite>
	lcdDelay(500);
 3c2:	84 ef       	ldi	r24, 0xF4	; 244
 3c4:	0e 94 67 00 	call	0xce	; 0xce <lcdDelay>
}
 3c8:	08 95       	ret

000003ca <lcdInit>:
		
	}
}

void lcdInit(void)
{
 3ca:	df 93       	push	r29
 3cc:	cf 93       	push	r28
 3ce:	00 d0       	rcall	.+0      	; 0x3d0 <lcdInit+0x6>
 3d0:	00 d0       	rcall	.+0      	; 0x3d2 <lcdInit+0x8>
 3d2:	00 d0       	rcall	.+0      	; 0x3d4 <lcdInit+0xa>
 3d4:	cd b7       	in	r28, 0x3d	; 61
 3d6:	de b7       	in	r29, 0x3e	; 62
	unsigned char i, lcd_reg[6]={0x38, 0x0c, 0x06};
 3d8:	96 e0       	ldi	r25, 0x06	; 6
 3da:	fe 01       	movw	r30, r28
 3dc:	31 96       	adiw	r30, 0x01	; 1
 3de:	df 01       	movw	r26, r30
 3e0:	89 2f       	mov	r24, r25
 3e2:	1d 92       	st	X+, r1
 3e4:	8a 95       	dec	r24
 3e6:	e9 f7       	brne	.-6      	; 0x3e2 <lcdInit+0x18>
 3e8:	88 e3       	ldi	r24, 0x38	; 56
 3ea:	89 83       	std	Y+1, r24	; 0x01
 3ec:	8c e0       	ldi	r24, 0x0C	; 12
 3ee:	8a 83       	std	Y+2, r24	; 0x02
 3f0:	9b 83       	std	Y+3, r25	; 0x03
	LCD_ENABLE_OFF;
 3f2:	80 91 26 01 	lds	r24, 0x0126
 3f6:	8b 70       	andi	r24, 0x0B	; 11
 3f8:	e1 e0       	ldi	r30, 0x01	; 1
 3fa:	f0 e8       	ldi	r31, 0x80	; 128
 3fc:	80 83       	st	Z, r24
	LCD_R_W_ON;
 3fe:	98 2f       	mov	r25, r24
 400:	92 60       	ori	r25, 0x02	; 2
 402:	90 83       	st	Z, r25
	LCD_RS_ON;
 404:	83 60       	ori	r24, 0x03	; 3
 406:	80 93 26 01 	sts	0x0126, r24
 40a:	80 83       	st	Z, r24


	lcdDelay(200);
 40c:	88 ec       	ldi	r24, 0xC8	; 200
 40e:	0e 94 67 00 	call	0xce	; 0xce <lcdDelay>
	for(i=0; i<3; i++){
		lcdRegWrite(lcd_reg[i]);
 412:	89 81       	ldd	r24, Y+1	; 0x01
 414:	0e 94 82 00 	call	0x104	; 0x104 <lcdRegWrite>
 418:	8a 81       	ldd	r24, Y+2	; 0x02
 41a:	0e 94 82 00 	call	0x104	; 0x104 <lcdRegWrite>
 41e:	86 e0       	ldi	r24, 0x06	; 6
 420:	0e 94 82 00 	call	0x104	; 0x104 <lcdRegWrite>
		//lcdDelay(200);
	}
    lcdClear();
 424:	0e 94 de 01 	call	0x3bc	; 0x3bc <lcdClear>
}
 428:	26 96       	adiw	r28, 0x06	; 6
 42a:	0f b6       	in	r0, 0x3f	; 63
 42c:	f8 94       	cli
 42e:	de bf       	out	0x3e, r29	; 62
 430:	0f be       	out	0x3f, r0	; 63
 432:	cd bf       	out	0x3d, r28	; 61
 434:	cf 91       	pop	r28
 436:	df 91       	pop	r29
 438:	08 95       	ret

0000043a <lcd_gotoxy>:
// |
// |
// v Y
void lcd_gotoxy(unsigned char x, unsigned char y)
{
	switch(y)
 43a:	61 30       	cpi	r22, 0x01	; 1
 43c:	19 f0       	breq	.+6      	; 0x444 <lcd_gotoxy+0xa>
 43e:	62 30       	cpi	r22, 0x02	; 2
 440:	71 f4       	brne	.+28     	; 0x45e <lcd_gotoxy+0x24>
 442:	07 c0       	rjmp	.+14     	; 0x452 <lcd_gotoxy+0x18>
	{
		case 1:
		{
			lcdRegWrite(0x80+x-1);
 444:	81 58       	subi	r24, 0x81	; 129
 446:	0e 94 82 00 	call	0x104	; 0x104 <lcdRegWrite>
			lcdDelay(30);
 44a:	8e e1       	ldi	r24, 0x1E	; 30
 44c:	0e 94 67 00 	call	0xce	; 0xce <lcdDelay>
 450:	08 95       	ret
			break; 
		}
		case 2 :
		{
			lcdRegWrite(0xc0+x-1);
 452:	81 54       	subi	r24, 0x41	; 65
 454:	0e 94 82 00 	call	0x104	; 0x104 <lcdRegWrite>
			lcdDelay(30);
 458:	8e e1       	ldi	r24, 0x1E	; 30
 45a:	0e 94 67 00 	call	0xce	; 0xce <lcdDelay>
 45e:	08 95       	ret

00000460 <lcd_puts>:
void lcd_gotoxy(unsigned char x, unsigned char y);

unsigned char lcd_curser=0, lcd_line=0;

void lcd_puts(char lcd_l, char *s)
{
 460:	cf 93       	push	r28
 462:	df 93       	push	r29
 464:	98 2f       	mov	r25, r24
 466:	eb 01       	movw	r28, r22
   	lcd_gotoxy(1,lcd_l);
 468:	81 e0       	ldi	r24, 0x01	; 1
 46a:	69 2f       	mov	r22, r25
 46c:	0e 94 1d 02 	call	0x43a	; 0x43a <lcd_gotoxy>
 470:	03 c0       	rjmp	.+6      	; 0x478 <lcd_puts+0x18>
	while(*s)
	{
        lcd_putch(*s);
 472:	0e 94 af 00 	call	0x15e	; 0x15e <lcd_putch>
		s++;
 476:	21 96       	adiw	r28, 0x01	; 1
unsigned char lcd_curser=0, lcd_line=0;

void lcd_puts(char lcd_l, char *s)
{
   	lcd_gotoxy(1,lcd_l);
	while(*s)
 478:	88 81       	ld	r24, Y
 47a:	88 23       	and	r24, r24
 47c:	d1 f7       	brne	.-12     	; 0x472 <lcd_puts+0x12>
	{
        lcd_putch(*s);
		s++;
	}
}
 47e:	df 91       	pop	r29
 480:	cf 91       	pop	r28
 482:	08 95       	ret

00000484 <secondRow>:
	}
}


void secondRow(void)
{
 484:	1f 93       	push	r17
 486:	10 e0       	ldi	r17, 0x00	; 0
	unsigned char i;
	for(i=0; i<24; i++){
		lcd_putch(0);
 488:	80 e0       	ldi	r24, 0x00	; 0
 48a:	0e 94 af 00 	call	0x15e	; 0x15e <lcd_putch>
		lcdDelay(30);
 48e:	8e e1       	ldi	r24, 0x1E	; 30
 490:	0e 94 67 00 	call	0xce	; 0xce <lcdDelay>


void secondRow(void)
{
	unsigned char i;
	for(i=0; i<24; i++){
 494:	1f 5f       	subi	r17, 0xFF	; 255
 496:	18 31       	cpi	r17, 0x18	; 24
 498:	b9 f7       	brne	.-18     	; 0x488 <secondRow+0x4>
		lcd_putch(0);
		lcdDelay(30);
	}
}
 49a:	1f 91       	pop	r17
 49c:	08 95       	ret

0000049e <putString>:


void putString(char str[])
{
 49e:	ef 92       	push	r14
 4a0:	ff 92       	push	r15
 4a2:	1f 93       	push	r17
 4a4:	cf 93       	push	r28
 4a6:	df 93       	push	r29
 4a8:	7c 01       	movw	r14, r24
 4aa:	10 e0       	ldi	r17, 0x00	; 0
 4ac:	0b c0       	rjmp	.+22     	; 0x4c4 <putString+0x26>
	unsigned char i=0;
	while(str[i]){
		if(i==16){
 4ae:	10 31       	cpi	r17, 0x10	; 16
 4b0:	11 f4       	brne	.+4      	; 0x4b6 <putString+0x18>
			secondRow();
 4b2:	0e 94 42 02 	call	0x484	; 0x484 <secondRow>
		}
		lcd_putch(str[i]);
 4b6:	88 81       	ld	r24, Y
 4b8:	0e 94 af 00 	call	0x15e	; 0x15e <lcd_putch>
		lcdDelay(30);
 4bc:	8e e1       	ldi	r24, 0x1E	; 30
 4be:	0e 94 67 00 	call	0xce	; 0xce <lcdDelay>
		i++;
 4c2:	1f 5f       	subi	r17, 0xFF	; 255


void putString(char str[])
{
	unsigned char i=0;
	while(str[i]){
 4c4:	e7 01       	movw	r28, r14
 4c6:	c1 0f       	add	r28, r17
 4c8:	d1 1d       	adc	r29, r1
 4ca:	88 81       	ld	r24, Y
 4cc:	88 23       	and	r24, r24
 4ce:	79 f7       	brne	.-34     	; 0x4ae <putString+0x10>
		}
		lcd_putch(str[i]);
		lcdDelay(30);
		i++;
	}
}
 4d0:	df 91       	pop	r29
 4d2:	cf 91       	pop	r28
 4d4:	1f 91       	pop	r17
 4d6:	ff 90       	pop	r15
 4d8:	ef 90       	pop	r14
 4da:	08 95       	ret

000004dc <lcdDelayLong>:
{
	unsigned char i, j, k;
	for(i=0; i<80; i++)
		for(j=0; j<50; j++)
			for(k=0; k<d; k++);
 4dc:	08 95       	ret

000004de <adc_init>:



void adc_init(void)
{
	ADCSRA = 0x00; // disable adc
 4de:	16 b8       	out	0x06, r1	; 6
	ADMUX = 0x00; // select adc input 0;
 4e0:	17 b8       	out	0x07, r1	; 7
	ADCSRA = 0x87; // adc enable, 분주 128 // 10000111
 4e2:	87 e8       	ldi	r24, 0x87	; 135
 4e4:	86 b9       	out	0x06, r24	; 6
	// adc 를 위한 주파수 = 16mhz / 128 = 125 khz
}
 4e6:	08 95       	ret

000004e8 <adc_startConversion>:

void adc_startConversion(void)
{	
	ADCSRA &= 0x07; // 128 분주비 사용 111
 4e8:	86 b1       	in	r24, 0x06	; 6
 4ea:	87 70       	andi	r24, 0x07	; 7
 4ec:	86 b9       	out	0x06, r24	; 6
	ADMUX = 0x00;
 4ee:	17 b8       	out	0x07, r1	; 7
	ADCSRA |= 0xc0; // adc ON 11000000
 4f0:	86 b1       	in	r24, 0x06	; 6
 4f2:	80 6c       	ori	r24, 0xC0	; 192
 4f4:	86 b9       	out	0x06, r24	; 6
}
 4f6:	08 95       	ret

000004f8 <adc_readData>:

unsigned int adc_readData(void)
{
 4f8:	df 93       	push	r29
 4fa:	cf 93       	push	r28
 4fc:	00 d0       	rcall	.+0      	; 0x4fe <adc_readData+0x6>
 4fe:	cd b7       	in	r28, 0x3d	; 61
 500:	de b7       	in	r29, 0x3e	; 62
	
	volatile unsigned int adc_temp;
	while((ADCSRA & 0x10) == 0); // 변환 완료까지 기다림
 502:	34 9b       	sbis	0x06, 4	; 6
 504:	fe cf       	rjmp	.-4      	; 0x502 <adc_readData+0xa>
	adc_temp=(int)ADCL+(int)ADCH*256; 
 506:	34 b1       	in	r19, 0x04	; 4
 508:	25 b1       	in	r18, 0x05	; 5
 50a:	92 2f       	mov	r25, r18
 50c:	80 e0       	ldi	r24, 0x00	; 0
 50e:	83 0f       	add	r24, r19
 510:	91 1d       	adc	r25, r1
 512:	9a 83       	std	Y+2, r25	; 0x02
 514:	89 83       	std	Y+1, r24	; 0x01
	// ADCSRA = ADCSRA | 0x10
	return adc_temp;
 516:	29 81       	ldd	r18, Y+1	; 0x01
 518:	3a 81       	ldd	r19, Y+2	; 0x02
}
 51a:	c9 01       	movw	r24, r18
 51c:	0f 90       	pop	r0
 51e:	0f 90       	pop	r0
 520:	cf 91       	pop	r28
 522:	df 91       	pop	r29
 524:	08 95       	ret

00000526 <port_init>:

void port_init(void)
{
	PORTB = 0x00;
 526:	18 ba       	out	0x18, r1	; 24
	DDRB  = 0x00;
 528:	17 ba       	out	0x17, r1	; 23
}
 52a:	08 95       	ret

0000052c <init_devices>:

void init_devices(void)
{
	CLI();
 52c:	f8 94       	cli
	return adc_temp;
}

void port_init(void)
{
	PORTB = 0x00;
 52e:	18 ba       	out	0x18, r1	; 24
	DDRB  = 0x00;
 530:	17 ba       	out	0x17, r1	; 23

void init_devices(void)
{
	CLI();
	port_init();
	MCUCR = 0x80;
 532:	80 e8       	ldi	r24, 0x80	; 128
 534:	85 bf       	out	0x35, r24	; 53
	SEI();
 536:	78 94       	sei
}
 538:	08 95       	ret

0000053a <main>:

int main()
{
 53a:	0f 93       	push	r16
 53c:	1f 93       	push	r17
 53e:	cf 93       	push	r28
 540:	df 93       	push	r29
	DDRB  = 0x00;
}

void init_devices(void)
{
	CLI();
 542:	f8 94       	cli
	return adc_temp;
}

void port_init(void)
{
	PORTB = 0x00;
 544:	18 ba       	out	0x18, r1	; 24
	DDRB  = 0x00;
 546:	17 ba       	out	0x17, r1	; 23

void init_devices(void)
{
	CLI();
	port_init();
	MCUCR = 0x80;
 548:	80 e8       	ldi	r24, 0x80	; 128
 54a:	85 bf       	out	0x35, r24	; 53
	SEI();
 54c:	78 94       	sei



void adc_init(void)
{
	ADCSRA = 0x00; // disable adc
 54e:	16 b8       	out	0x06, r1	; 6
	ADMUX = 0x00; // select adc input 0;
 550:	17 b8       	out	0x07, r1	; 7
	ADCSRA = 0x87; // adc enable, 분주 128 // 10000111
 552:	87 e8       	ldi	r24, 0x87	; 135
 554:	86 b9       	out	0x06, r24	; 6
	unsigned int adc_data, ah0, al0;
	float voltage;
	init_devices();
	adc_init();
	
	lcd_puts(1," adc test");
 556:	81 e0       	ldi	r24, 0x01	; 1
 558:	60 e0       	ldi	r22, 0x00	; 0
 55a:	71 e0       	ldi	r23, 0x01	; 1
 55c:	0e 94 30 02 	call	0x460	; 0x460 <lcd_puts>
	lcd_puts(2," adc res.");
 560:	82 e0       	ldi	r24, 0x02	; 2
 562:	6a e0       	ldi	r22, 0x0A	; 10
 564:	71 e0       	ldi	r23, 0x01	; 1
 566:	0e 94 30 02 	call	0x460	; 0x460 <lcd_puts>
    milliseconds can be achieved.
 */
void
_delay_loop_2(uint16_t __count)
{
	__asm__ volatile (
 56a:	c8 e2       	ldi	r28, 0x28	; 40
 56c:	d0 e0       	ldi	r29, 0x00	; 0
	// adc 를 위한 주파수 = 16mhz / 128 = 125 khz
}

void adc_startConversion(void)
{	
	ADCSRA &= 0x07; // 128 분주비 사용 111
 56e:	86 b1       	in	r24, 0x06	; 6
 570:	87 70       	andi	r24, 0x07	; 7
 572:	86 b9       	out	0x06, r24	; 6
	ADMUX = 0x00;
 574:	17 b8       	out	0x07, r1	; 7
	ADCSRA |= 0xc0; // adc ON 11000000
 576:	86 b1       	in	r24, 0x06	; 6
 578:	80 6c       	ori	r24, 0xC0	; 192
 57a:	86 b9       	out	0x06, r24	; 6
	lcd_puts(2," adc res.");
	
	while(1)
	{
		adc_startConversion();
		adc_data = adc_readData();
 57c:	0e 94 7c 02 	call	0x4f8	; 0x4f8 <adc_readData>
 580:	8c 01       	movw	r16, r24
		voltage = (float)(5*adc_data)/1024;
		
		lcd_gotoxy(2,2);
 582:	82 e0       	ldi	r24, 0x02	; 2
 584:	62 e0       	ldi	r22, 0x02	; 2
 586:	0e 94 1d 02 	call	0x43a	; 0x43a <lcd_gotoxy>
		lcd_putn4(adc_data);
 58a:	c8 01       	movw	r24, r16
 58c:	0e 94 62 01 	call	0x2c4	; 0x2c4 <lcd_putn4>
		lcd_gotoxy(10,2);
 590:	8a e0       	ldi	r24, 0x0A	; 10
 592:	62 e0       	ldi	r22, 0x02	; 2
 594:	0e 94 1d 02 	call	0x43a	; 0x43a <lcd_gotoxy>
		lcd_putn4(voltage*1000);
 598:	b8 01       	movw	r22, r16
 59a:	66 0f       	add	r22, r22
 59c:	77 1f       	adc	r23, r23
 59e:	66 0f       	add	r22, r22
 5a0:	77 1f       	adc	r23, r23
 5a2:	60 0f       	add	r22, r16
 5a4:	71 1f       	adc	r23, r17
 5a6:	80 e0       	ldi	r24, 0x00	; 0
 5a8:	90 e0       	ldi	r25, 0x00	; 0
 5aa:	0e 94 1d 03 	call	0x63a	; 0x63a <__floatunsisf>
 5ae:	20 e0       	ldi	r18, 0x00	; 0
 5b0:	30 e0       	ldi	r19, 0x00	; 0
 5b2:	40 e8       	ldi	r20, 0x80	; 128
 5b4:	5a e3       	ldi	r21, 0x3A	; 58
 5b6:	0e 94 83 03 	call	0x706	; 0x706 <__mulsf3>
 5ba:	20 e0       	ldi	r18, 0x00	; 0
 5bc:	30 e0       	ldi	r19, 0x00	; 0
 5be:	4a e7       	ldi	r20, 0x7A	; 122
 5c0:	54 e4       	ldi	r21, 0x44	; 68
 5c2:	0e 94 83 03 	call	0x706	; 0x706 <__mulsf3>
 5c6:	0e 94 f1 02 	call	0x5e2	; 0x5e2 <__fixunssfsi>
 5ca:	dc 01       	movw	r26, r24
 5cc:	cb 01       	movw	r24, r22
 5ce:	0e 94 62 01 	call	0x2c4	; 0x2c4 <lcd_putn4>
 5d2:	88 e8       	ldi	r24, 0x88	; 136
 5d4:	93 e1       	ldi	r25, 0x13	; 19
 5d6:	fe 01       	movw	r30, r28
 5d8:	31 97       	sbiw	r30, 0x01	; 1
 5da:	f1 f7       	brne	.-4      	; 0x5d8 <main+0x9e>
		__ticks = (uint16_t) (__ms * 10.0);
		while(__ticks)
		{
			// wait 1/10 ms
			_delay_loop_2(((F_CPU) / 4e3) / 10);
			__ticks --;
 5dc:	01 97       	sbiw	r24, 0x01	; 1
		__ticks = 1;
	else if (__tmp > 65535)
	{
		//	__ticks = requested delay in 1/10 ms
		__ticks = (uint16_t) (__ms * 10.0);
		while(__ticks)
 5de:	d9 f7       	brne	.-10     	; 0x5d6 <main+0x9c>
 5e0:	c6 cf       	rjmp	.-116    	; 0x56e <main+0x34>

000005e2 <__fixunssfsi>:
 5e2:	70 d0       	rcall	.+224    	; 0x6c4 <__fp_splitA>
 5e4:	88 f0       	brcs	.+34     	; 0x608 <__fixunssfsi+0x26>
 5e6:	9f 57       	subi	r25, 0x7F	; 127
 5e8:	90 f0       	brcs	.+36     	; 0x60e <__fixunssfsi+0x2c>
 5ea:	b9 2f       	mov	r27, r25
 5ec:	99 27       	eor	r25, r25
 5ee:	b7 51       	subi	r27, 0x17	; 23
 5f0:	a0 f0       	brcs	.+40     	; 0x61a <__fixunssfsi+0x38>
 5f2:	d1 f0       	breq	.+52     	; 0x628 <__fixunssfsi+0x46>
 5f4:	66 0f       	add	r22, r22
 5f6:	77 1f       	adc	r23, r23
 5f8:	88 1f       	adc	r24, r24
 5fa:	99 1f       	adc	r25, r25
 5fc:	1a f0       	brmi	.+6      	; 0x604 <__fixunssfsi+0x22>
 5fe:	ba 95       	dec	r27
 600:	c9 f7       	brne	.-14     	; 0x5f4 <__fixunssfsi+0x12>
 602:	12 c0       	rjmp	.+36     	; 0x628 <__fixunssfsi+0x46>
 604:	b1 30       	cpi	r27, 0x01	; 1
 606:	81 f0       	breq	.+32     	; 0x628 <__fixunssfsi+0x46>
 608:	77 d0       	rcall	.+238    	; 0x6f8 <__fp_zero>
 60a:	b1 e0       	ldi	r27, 0x01	; 1
 60c:	08 95       	ret
 60e:	74 c0       	rjmp	.+232    	; 0x6f8 <__fp_zero>
 610:	67 2f       	mov	r22, r23
 612:	78 2f       	mov	r23, r24
 614:	88 27       	eor	r24, r24
 616:	b8 5f       	subi	r27, 0xF8	; 248
 618:	39 f0       	breq	.+14     	; 0x628 <__fixunssfsi+0x46>
 61a:	b9 3f       	cpi	r27, 0xF9	; 249
 61c:	cc f3       	brlt	.-14     	; 0x610 <__fixunssfsi+0x2e>
 61e:	86 95       	lsr	r24
 620:	77 95       	ror	r23
 622:	67 95       	ror	r22
 624:	b3 95       	inc	r27
 626:	d9 f7       	brne	.-10     	; 0x61e <__fixunssfsi+0x3c>
 628:	3e f4       	brtc	.+14     	; 0x638 <__fixunssfsi+0x56>
 62a:	90 95       	com	r25
 62c:	80 95       	com	r24
 62e:	70 95       	com	r23
 630:	61 95       	neg	r22
 632:	7f 4f       	sbci	r23, 0xFF	; 255
 634:	8f 4f       	sbci	r24, 0xFF	; 255
 636:	9f 4f       	sbci	r25, 0xFF	; 255
 638:	08 95       	ret

0000063a <__floatunsisf>:
 63a:	e8 94       	clt
 63c:	09 c0       	rjmp	.+18     	; 0x650 <__floatsisf+0x12>

0000063e <__floatsisf>:
 63e:	97 fb       	bst	r25, 7
 640:	3e f4       	brtc	.+14     	; 0x650 <__floatsisf+0x12>
 642:	90 95       	com	r25
 644:	80 95       	com	r24
 646:	70 95       	com	r23
 648:	61 95       	neg	r22
 64a:	7f 4f       	sbci	r23, 0xFF	; 255
 64c:	8f 4f       	sbci	r24, 0xFF	; 255
 64e:	9f 4f       	sbci	r25, 0xFF	; 255
 650:	99 23       	and	r25, r25
 652:	a9 f0       	breq	.+42     	; 0x67e <__floatsisf+0x40>
 654:	f9 2f       	mov	r31, r25
 656:	96 e9       	ldi	r25, 0x96	; 150
 658:	bb 27       	eor	r27, r27
 65a:	93 95       	inc	r25
 65c:	f6 95       	lsr	r31
 65e:	87 95       	ror	r24
 660:	77 95       	ror	r23
 662:	67 95       	ror	r22
 664:	b7 95       	ror	r27
 666:	f1 11       	cpse	r31, r1
 668:	f8 cf       	rjmp	.-16     	; 0x65a <__floatsisf+0x1c>
 66a:	fa f4       	brpl	.+62     	; 0x6aa <__floatsisf+0x6c>
 66c:	bb 0f       	add	r27, r27
 66e:	11 f4       	brne	.+4      	; 0x674 <__floatsisf+0x36>
 670:	60 ff       	sbrs	r22, 0
 672:	1b c0       	rjmp	.+54     	; 0x6aa <__floatsisf+0x6c>
 674:	6f 5f       	subi	r22, 0xFF	; 255
 676:	7f 4f       	sbci	r23, 0xFF	; 255
 678:	8f 4f       	sbci	r24, 0xFF	; 255
 67a:	9f 4f       	sbci	r25, 0xFF	; 255
 67c:	16 c0       	rjmp	.+44     	; 0x6aa <__floatsisf+0x6c>
 67e:	88 23       	and	r24, r24
 680:	11 f0       	breq	.+4      	; 0x686 <__floatsisf+0x48>
 682:	96 e9       	ldi	r25, 0x96	; 150
 684:	11 c0       	rjmp	.+34     	; 0x6a8 <__floatsisf+0x6a>
 686:	77 23       	and	r23, r23
 688:	21 f0       	breq	.+8      	; 0x692 <__floatsisf+0x54>
 68a:	9e e8       	ldi	r25, 0x8E	; 142
 68c:	87 2f       	mov	r24, r23
 68e:	76 2f       	mov	r23, r22
 690:	05 c0       	rjmp	.+10     	; 0x69c <__floatsisf+0x5e>
 692:	66 23       	and	r22, r22
 694:	71 f0       	breq	.+28     	; 0x6b2 <__floatsisf+0x74>
 696:	96 e8       	ldi	r25, 0x86	; 134
 698:	86 2f       	mov	r24, r22
 69a:	70 e0       	ldi	r23, 0x00	; 0
 69c:	60 e0       	ldi	r22, 0x00	; 0
 69e:	2a f0       	brmi	.+10     	; 0x6aa <__floatsisf+0x6c>
 6a0:	9a 95       	dec	r25
 6a2:	66 0f       	add	r22, r22
 6a4:	77 1f       	adc	r23, r23
 6a6:	88 1f       	adc	r24, r24
 6a8:	da f7       	brpl	.-10     	; 0x6a0 <__floatsisf+0x62>
 6aa:	88 0f       	add	r24, r24
 6ac:	96 95       	lsr	r25
 6ae:	87 95       	ror	r24
 6b0:	97 f9       	bld	r25, 7
 6b2:	08 95       	ret

000006b4 <__fp_split3>:
 6b4:	57 fd       	sbrc	r21, 7
 6b6:	90 58       	subi	r25, 0x80	; 128
 6b8:	44 0f       	add	r20, r20
 6ba:	55 1f       	adc	r21, r21
 6bc:	59 f0       	breq	.+22     	; 0x6d4 <__fp_splitA+0x10>
 6be:	5f 3f       	cpi	r21, 0xFF	; 255
 6c0:	71 f0       	breq	.+28     	; 0x6de <__fp_splitA+0x1a>
 6c2:	47 95       	ror	r20

000006c4 <__fp_splitA>:
 6c4:	88 0f       	add	r24, r24
 6c6:	97 fb       	bst	r25, 7
 6c8:	99 1f       	adc	r25, r25
 6ca:	61 f0       	breq	.+24     	; 0x6e4 <__fp_splitA+0x20>
 6cc:	9f 3f       	cpi	r25, 0xFF	; 255
 6ce:	79 f0       	breq	.+30     	; 0x6ee <__fp_splitA+0x2a>
 6d0:	87 95       	ror	r24
 6d2:	08 95       	ret
 6d4:	12 16       	cp	r1, r18
 6d6:	13 06       	cpc	r1, r19
 6d8:	14 06       	cpc	r1, r20
 6da:	55 1f       	adc	r21, r21
 6dc:	f2 cf       	rjmp	.-28     	; 0x6c2 <__fp_split3+0xe>
 6de:	46 95       	lsr	r20
 6e0:	f1 df       	rcall	.-30     	; 0x6c4 <__fp_splitA>
 6e2:	08 c0       	rjmp	.+16     	; 0x6f4 <__fp_splitA+0x30>
 6e4:	16 16       	cp	r1, r22
 6e6:	17 06       	cpc	r1, r23
 6e8:	18 06       	cpc	r1, r24
 6ea:	99 1f       	adc	r25, r25
 6ec:	f1 cf       	rjmp	.-30     	; 0x6d0 <__fp_splitA+0xc>
 6ee:	86 95       	lsr	r24
 6f0:	71 05       	cpc	r23, r1
 6f2:	61 05       	cpc	r22, r1
 6f4:	08 94       	sec
 6f6:	08 95       	ret

000006f8 <__fp_zero>:
 6f8:	e8 94       	clt

000006fa <__fp_szero>:
 6fa:	bb 27       	eor	r27, r27
 6fc:	66 27       	eor	r22, r22
 6fe:	77 27       	eor	r23, r23
 700:	cb 01       	movw	r24, r22
 702:	97 f9       	bld	r25, 7
 704:	08 95       	ret

00000706 <__mulsf3>:
 706:	0b d0       	rcall	.+22     	; 0x71e <__mulsf3x>
 708:	78 c0       	rjmp	.+240    	; 0x7fa <__fp_round>
 70a:	69 d0       	rcall	.+210    	; 0x7de <__fp_pscA>
 70c:	28 f0       	brcs	.+10     	; 0x718 <__mulsf3+0x12>
 70e:	6e d0       	rcall	.+220    	; 0x7ec <__fp_pscB>
 710:	18 f0       	brcs	.+6      	; 0x718 <__mulsf3+0x12>
 712:	95 23       	and	r25, r21
 714:	09 f0       	breq	.+2      	; 0x718 <__mulsf3+0x12>
 716:	5a c0       	rjmp	.+180    	; 0x7cc <__fp_inf>
 718:	5f c0       	rjmp	.+190    	; 0x7d8 <__fp_nan>
 71a:	11 24       	eor	r1, r1
 71c:	ee cf       	rjmp	.-36     	; 0x6fa <__fp_szero>

0000071e <__mulsf3x>:
 71e:	ca df       	rcall	.-108    	; 0x6b4 <__fp_split3>
 720:	a0 f3       	brcs	.-24     	; 0x70a <__mulsf3+0x4>

00000722 <__mulsf3_pse>:
 722:	95 9f       	mul	r25, r21
 724:	d1 f3       	breq	.-12     	; 0x71a <__mulsf3+0x14>
 726:	95 0f       	add	r25, r21
 728:	50 e0       	ldi	r21, 0x00	; 0
 72a:	55 1f       	adc	r21, r21
 72c:	62 9f       	mul	r22, r18
 72e:	f0 01       	movw	r30, r0
 730:	72 9f       	mul	r23, r18
 732:	bb 27       	eor	r27, r27
 734:	f0 0d       	add	r31, r0
 736:	b1 1d       	adc	r27, r1
 738:	63 9f       	mul	r22, r19
 73a:	aa 27       	eor	r26, r26
 73c:	f0 0d       	add	r31, r0
 73e:	b1 1d       	adc	r27, r1
 740:	aa 1f       	adc	r26, r26
 742:	64 9f       	mul	r22, r20
 744:	66 27       	eor	r22, r22
 746:	b0 0d       	add	r27, r0
 748:	a1 1d       	adc	r26, r1
 74a:	66 1f       	adc	r22, r22
 74c:	82 9f       	mul	r24, r18
 74e:	22 27       	eor	r18, r18
 750:	b0 0d       	add	r27, r0
 752:	a1 1d       	adc	r26, r1
 754:	62 1f       	adc	r22, r18
 756:	73 9f       	mul	r23, r19
 758:	b0 0d       	add	r27, r0
 75a:	a1 1d       	adc	r26, r1
 75c:	62 1f       	adc	r22, r18
 75e:	83 9f       	mul	r24, r19
 760:	a0 0d       	add	r26, r0
 762:	61 1d       	adc	r22, r1
 764:	22 1f       	adc	r18, r18
 766:	74 9f       	mul	r23, r20
 768:	33 27       	eor	r19, r19
 76a:	a0 0d       	add	r26, r0
 76c:	61 1d       	adc	r22, r1
 76e:	23 1f       	adc	r18, r19
 770:	84 9f       	mul	r24, r20
 772:	60 0d       	add	r22, r0
 774:	21 1d       	adc	r18, r1
 776:	82 2f       	mov	r24, r18
 778:	76 2f       	mov	r23, r22
 77a:	6a 2f       	mov	r22, r26
 77c:	11 24       	eor	r1, r1
 77e:	9f 57       	subi	r25, 0x7F	; 127
 780:	50 40       	sbci	r21, 0x00	; 0
 782:	8a f0       	brmi	.+34     	; 0x7a6 <__mulsf3_pse+0x84>
 784:	e1 f0       	breq	.+56     	; 0x7be <__mulsf3_pse+0x9c>
 786:	88 23       	and	r24, r24
 788:	4a f0       	brmi	.+18     	; 0x79c <__mulsf3_pse+0x7a>
 78a:	ee 0f       	add	r30, r30
 78c:	ff 1f       	adc	r31, r31
 78e:	bb 1f       	adc	r27, r27
 790:	66 1f       	adc	r22, r22
 792:	77 1f       	adc	r23, r23
 794:	88 1f       	adc	r24, r24
 796:	91 50       	subi	r25, 0x01	; 1
 798:	50 40       	sbci	r21, 0x00	; 0
 79a:	a9 f7       	brne	.-22     	; 0x786 <__mulsf3_pse+0x64>
 79c:	9e 3f       	cpi	r25, 0xFE	; 254
 79e:	51 05       	cpc	r21, r1
 7a0:	70 f0       	brcs	.+28     	; 0x7be <__mulsf3_pse+0x9c>
 7a2:	14 c0       	rjmp	.+40     	; 0x7cc <__fp_inf>
 7a4:	aa cf       	rjmp	.-172    	; 0x6fa <__fp_szero>
 7a6:	5f 3f       	cpi	r21, 0xFF	; 255
 7a8:	ec f3       	brlt	.-6      	; 0x7a4 <__mulsf3_pse+0x82>
 7aa:	98 3e       	cpi	r25, 0xE8	; 232
 7ac:	dc f3       	brlt	.-10     	; 0x7a4 <__mulsf3_pse+0x82>
 7ae:	86 95       	lsr	r24
 7b0:	77 95       	ror	r23
 7b2:	67 95       	ror	r22
 7b4:	b7 95       	ror	r27
 7b6:	f7 95       	ror	r31
 7b8:	e7 95       	ror	r30
 7ba:	9f 5f       	subi	r25, 0xFF	; 255
 7bc:	c1 f7       	brne	.-16     	; 0x7ae <__mulsf3_pse+0x8c>
 7be:	fe 2b       	or	r31, r30
 7c0:	88 0f       	add	r24, r24
 7c2:	91 1d       	adc	r25, r1
 7c4:	96 95       	lsr	r25
 7c6:	87 95       	ror	r24
 7c8:	97 f9       	bld	r25, 7
 7ca:	08 95       	ret

000007cc <__fp_inf>:
 7cc:	97 f9       	bld	r25, 7
 7ce:	9f 67       	ori	r25, 0x7F	; 127
 7d0:	80 e8       	ldi	r24, 0x80	; 128
 7d2:	70 e0       	ldi	r23, 0x00	; 0
 7d4:	60 e0       	ldi	r22, 0x00	; 0
 7d6:	08 95       	ret

000007d8 <__fp_nan>:
 7d8:	9f ef       	ldi	r25, 0xFF	; 255
 7da:	80 ec       	ldi	r24, 0xC0	; 192
 7dc:	08 95       	ret

000007de <__fp_pscA>:
 7de:	00 24       	eor	r0, r0
 7e0:	0a 94       	dec	r0
 7e2:	16 16       	cp	r1, r22
 7e4:	17 06       	cpc	r1, r23
 7e6:	18 06       	cpc	r1, r24
 7e8:	09 06       	cpc	r0, r25
 7ea:	08 95       	ret

000007ec <__fp_pscB>:
 7ec:	00 24       	eor	r0, r0
 7ee:	0a 94       	dec	r0
 7f0:	12 16       	cp	r1, r18
 7f2:	13 06       	cpc	r1, r19
 7f4:	14 06       	cpc	r1, r20
 7f6:	05 06       	cpc	r0, r21
 7f8:	08 95       	ret

000007fa <__fp_round>:
 7fa:	09 2e       	mov	r0, r25
 7fc:	03 94       	inc	r0
 7fe:	00 0c       	add	r0, r0
 800:	11 f4       	brne	.+4      	; 0x806 <__fp_round+0xc>
 802:	88 23       	and	r24, r24
 804:	52 f0       	brmi	.+20     	; 0x81a <__fp_round+0x20>
 806:	bb 0f       	add	r27, r27
 808:	40 f4       	brcc	.+16     	; 0x81a <__fp_round+0x20>
 80a:	bf 2b       	or	r27, r31
 80c:	11 f4       	brne	.+4      	; 0x812 <__fp_round+0x18>
 80e:	60 ff       	sbrs	r22, 0
 810:	04 c0       	rjmp	.+8      	; 0x81a <__fp_round+0x20>
 812:	6f 5f       	subi	r22, 0xFF	; 255
 814:	7f 4f       	sbci	r23, 0xFF	; 255
 816:	8f 4f       	sbci	r24, 0xFF	; 255
 818:	9f 4f       	sbci	r25, 0xFF	; 255
 81a:	08 95       	ret

0000081c <__udivmodqi4>:
 81c:	99 1b       	sub	r25, r25
 81e:	79 e0       	ldi	r23, 0x09	; 9
 820:	04 c0       	rjmp	.+8      	; 0x82a <__udivmodqi4_ep>

00000822 <__udivmodqi4_loop>:
 822:	99 1f       	adc	r25, r25
 824:	96 17       	cp	r25, r22
 826:	08 f0       	brcs	.+2      	; 0x82a <__udivmodqi4_ep>
 828:	96 1b       	sub	r25, r22

0000082a <__udivmodqi4_ep>:
 82a:	88 1f       	adc	r24, r24
 82c:	7a 95       	dec	r23
 82e:	c9 f7       	brne	.-14     	; 0x822 <__udivmodqi4_loop>
 830:	80 95       	com	r24
 832:	08 95       	ret

00000834 <__udivmodhi4>:
 834:	aa 1b       	sub	r26, r26
 836:	bb 1b       	sub	r27, r27
 838:	51 e1       	ldi	r21, 0x11	; 17
 83a:	07 c0       	rjmp	.+14     	; 0x84a <__udivmodhi4_ep>

0000083c <__udivmodhi4_loop>:
 83c:	aa 1f       	adc	r26, r26
 83e:	bb 1f       	adc	r27, r27
 840:	a6 17       	cp	r26, r22
 842:	b7 07       	cpc	r27, r23
 844:	10 f0       	brcs	.+4      	; 0x84a <__udivmodhi4_ep>
 846:	a6 1b       	sub	r26, r22
 848:	b7 0b       	sbc	r27, r23

0000084a <__udivmodhi4_ep>:
 84a:	88 1f       	adc	r24, r24
 84c:	99 1f       	adc	r25, r25
 84e:	5a 95       	dec	r21
 850:	a9 f7       	brne	.-22     	; 0x83c <__udivmodhi4_loop>
 852:	80 95       	com	r24
 854:	90 95       	com	r25
 856:	bc 01       	movw	r22, r24
 858:	cd 01       	movw	r24, r26
 85a:	08 95       	ret

0000085c <_exit>:
 85c:	f8 94       	cli

0000085e <__stop_program>:
 85e:	ff cf       	rjmp	.-2      	; 0x85e <__stop_program>
